; Function Attrs: nofree norecurse nosync nounwind memory(argmem: readwrite) uwtable
define void @ff_vvc_inv_dct8_16(ptr noundef captures(none) %0, i64 noundef %1, i64 noundef %2) local_unnamed_addr #2 {
  %4 = alloca [16 x i32], align 16
  call void @llvm.lifetime.start.p0(i64 64, ptr nonnull %4) #4
  %.not.i.i = icmp eq i64 %2, 0
  br i1 %.not.i.i, label %.preheader.i.i, label %.lr.ph.i.i

.preheader.us.i.i:                                ; preds = %.lr.ph.i.i, %._crit_edge.us.i.i
  %.02338.us.i.i = phi i32 [ %16, %._crit_edge.us.i.i ], [ 0, %.lr.ph.i.i ]
  %.02537.us.i.i = phi ptr [ %14, %._crit_edge.us.i.i ], [ %0, %.lr.ph.i.i ]
  %.02636.us.i.i = phi ptr [ %15, %._crit_edge.us.i.i ], [ @ff_vvc_dct8_16x16, %.lr.ph.i.i ]
  br label %5

5:                                                ; preds = %5, %.preheader.us.i.i
  %indvars.iv42.i.i = phi i64 [ 0, %.preheader.us.i.i ], [ %indvars.iv.next43.i.i, %5 ]
  %.02233.us.i.i = phi i32 [ 0, %.preheader.us.i.i ], [ %13, %5 ]
  %6 = getelementptr inbounds nuw [16 x i32], ptr %4, i64 0, i64 %indvars.iv42.i.i
  %7 = load i32, ptr %6, align 4, !tbaa !4
  %8 = shl nuw nsw i64 %indvars.iv42.i.i, 4
  %9 = getelementptr inbounds nuw i8, ptr %.02636.us.i.i, i64 %8
  %10 = load i8, ptr %9, align 1, !tbaa !8
  %11 = sext i8 %10 to i32
  %12 = mul nsw i32 %7, %11
  %13 = add nsw i32 %12, %.02233.us.i.i
  %indvars.iv.next43.i.i = add nuw nsw i64 %indvars.iv42.i.i, 1
  %exitcond45.not.i.i = icmp eq i64 %indvars.iv.next43.i.i, %2
  br i1 %exitcond45.not.i.i, label %._crit_edge.us.i.i, label %5, !llvm.loop !9

._crit_edge.us.i.i:                               ; preds = %5
  store i32 %13, ptr %.02537.us.i.i, align 4, !tbaa !4
  %14 = getelementptr inbounds i32, ptr %.02537.us.i.i, i64 %1
  %15 = getelementptr inbounds nuw i8, ptr %.02636.us.i.i, i64 1
  %16 = add nuw nsw i32 %.02338.us.i.i, 1
  %exitcond46.not.i.i = icmp eq i32 %16, 16
  br i1 %exitcond46.not.i.i, label %inv_dct8.exit, label %.preheader.us.i.i, !llvm.loop !11

.lr.ph.i.i:                                       ; preds = %3, %.lr.ph.i.i
  %indvars.iv.i.i = phi i64 [ %indvars.iv.next.i.i, %.lr.ph.i.i ], [ 0, %3 ]
  %17 = mul nsw i64 %indvars.iv.i.i, %1
  %18 = getelementptr inbounds i32, ptr %0, i64 %17
  %19 = load i32, ptr %18, align 4, !tbaa !4
  %20 = getelementptr inbounds nuw [16 x i32], ptr %4, i64 0, i64 %indvars.iv.i.i
  store i32 %19, ptr %20, align 4, !tbaa !4
  %indvars.iv.next.i.i = add nuw nsw i64 %indvars.iv.i.i, 1
  %exitcond.not.i.i = icmp eq i64 %indvars.iv.next.i.i, %2
  br i1 %exitcond.not.i.i, label %.preheader.us.i.i, label %.lr.ph.i.i, !llvm.loop !12

.preheader.i.i:                                   ; preds = %3, %.preheader.i.i
  %.02338.i.i = phi i32 [ %22, %.preheader.i.i ], [ 0, %3 ]
  %.02537.i.i = phi ptr [ %21, %.preheader.i.i ], [ %0, %3 ]
  store i32 0, ptr %.02537.i.i, align 4, !tbaa !4
  %21 = getelementptr inbounds i32, ptr %.02537.i.i, i64 %1
  %22 = add nuw nsw i32 %.02338.i.i, 1
  %exitcond47.not.i.i = icmp eq i32 %22, 16
  br i1 %exitcond47.not.i.i, label %inv_dct8.exit, label %.preheader.i.i, !llvm.loop !11

inv_dct8.exit:                                    ; preds = %._crit_edge.us.i.i, %.preheader.i.i
  call void @llvm.lifetime.end.p0(i64 64, ptr nonnull %4) #4
  ret void
}